target datalayout = "e-m:e-p270:32:32-p271:32:32-p272:64:64-i64:64-i128:128-f80:128-n8:16:32:64-S128"
target triple = "x86_64-pc-linux-gnu"

%struct.SDL_DriverWii_Context = type { ptr, ptr, i64, i32, i32, i8, i32, i8, i8, i8, i8, [22 x i8], i64, i64, i64, i8, [6 x %struct.StickCalibrationData] }
%struct.StickCalibrationData = type { i16, i16, i16, i16 }
%struct.SDL_HIDAPI_Device = type { ptr, ptr, ptr, ptr, i16, i16, i16, ptr, %struct.SDL_GUID, i32, i32, i32, i32, i16, i16, i8, i32, i32, i32, ptr, ptr, ptr, ptr, %struct.SDL_AtomicInt, i32, ptr, i8, i8, i8, ptr, i32, ptr, ptr }
%struct.SDL_GUID = type { [16 x i8] }
%struct.SDL_AtomicInt = type { i32 }

@.str.1 = private unnamed_addr constant [15 x i8] c"Read timed out\00", align 1
@.str.6 = private unnamed_addr constant [24 x i8] c"Write memory failed: %u\00", align 1

; Function Attrs: nounwind uwtable
define internal i32 @ReadInput(ptr noundef %0) #0 {
  %2 = alloca i32, align 4
  %3 = alloca ptr, align 8
  %4 = alloca i32, align 4
  %5 = alloca i32, align 4
  store ptr %0, ptr %3, align 8
  call void @llvm.lifetime.start.p0(i64 4, ptr %4) #6
  %6 = load ptr, ptr %3, align 8
  %7 = getelementptr inbounds nuw %struct.SDL_DriverWii_Context, ptr %6, i32 0, i32 0
  %8 = load ptr, ptr %7, align 8
  %9 = getelementptr inbounds nuw %struct.SDL_HIDAPI_Device, ptr %8, i32 0, i32 23
  %10 = call i32 @SDL_GetAtomicInt_REAL(ptr noundef %9)
  %11 = icmp sgt i32 %10, 0
  br i1 %11, label %12, label %13

12:                                               ; preds = %1
  store i32 0, ptr %2, align 4
  store i32 1, ptr %5, align 4
  br label %24

13:                                               ; preds = %1
  %14 = load ptr, ptr %3, align 8
  %15 = getelementptr inbounds nuw %struct.SDL_DriverWii_Context, ptr %14, i32 0, i32 0
  %16 = load ptr, ptr %15, align 8
  %17 = getelementptr inbounds nuw %struct.SDL_HIDAPI_Device, ptr %16, i32 0, i32 22
  %18 = load ptr, ptr %17, align 8
  %19 = load ptr, ptr %3, align 8
  %20 = getelementptr inbounds nuw %struct.SDL_DriverWii_Context, ptr %19, i32 0, i32 11
  %21 = getelementptr inbounds [22 x i8], ptr %20, i64 0, i64 0
  %22 = call i32 @SDL_hid_read_timeout_REAL(ptr noundef %18, ptr noundef %21, i64 noundef 22, i32 noundef 0)
  store i32 %22, ptr %4, align 4
  %23 = load i32, ptr %4, align 4
  store i32 %23, ptr %2, align 4
  store i32 1, ptr %5, align 4
  br label %24

24:                                               ; preds = %13, %12
  call void @llvm.lifetime.end.p0(i64 4, ptr %4) #6
  %25 = load i32, ptr %2, align 4
  ret i32 %25
}

; Function Attrs: nounwind uwtable
define internal zeroext i1 @ReadInputSync(ptr noundef %0, i32 noundef %1, ptr noundef %2) #0 {
  %4 = alloca i1, align 1
  %5 = alloca ptr, align 8
  %6 = alloca i32, align 4
  %7 = alloca ptr, align 8
  %8 = alloca i64, align 8
  %9 = alloca i32, align 4
  %10 = alloca i32, align 4
  store ptr %0, ptr %5, align 8
  store i32 %1, ptr %6, align 4
  store ptr %2, ptr %7, align 8
  call void @llvm.lifetime.start.p0(i64 8, ptr %8) #6
  %11 = call i64 @SDL_GetTicks_REAL()
  %12 = add i64 %11, 250
  store i64 %12, ptr %8, align 8
  call void @llvm.lifetime.start.p0(i64 4, ptr %9) #6
  store i32 0, ptr %9, align 4
  br label %13

13:                                               ; preds = %45, %3
  %14 = load ptr, ptr %5, align 8
  %15 = call i32 @ReadInput(ptr noundef %14)
  store i32 %15, ptr %9, align 4
  %16 = icmp ne i32 %15, -1
  br i1 %16, label %17, label %46

17:                                               ; preds = %13
  %18 = load i32, ptr %9, align 4
  %19 = icmp sgt i32 %18, 0
  br i1 %19, label %20, label %39

20:                                               ; preds = %17
  %21 = load ptr, ptr %5, align 8
  %22 = getelementptr inbounds nuw %struct.SDL_DriverWii_Context, ptr %21, i32 0, i32 11
  %23 = getelementptr inbounds [22 x i8], ptr %22, i64 0, i64 0
  %24 = load i8, ptr %23, align 4
  %25 = zext i8 %24 to i32
  %26 = load i32, ptr %6, align 4
  %27 = icmp eq i32 %25, %26
  br i1 %27, label %28, label %38

28:                                               ; preds = %20
  %29 = load ptr, ptr %7, align 8
  %30 = icmp ne ptr %29, null
  br i1 %30, label %31, label %37

31:                                               ; preds = %28
  %32 = load ptr, ptr %7, align 8
  %33 = load ptr, ptr %5, align 8
  %34 = getelementptr inbounds nuw %struct.SDL_DriverWii_Context, ptr %33, i32 0, i32 11
  %35 = getelementptr inbounds [22 x i8], ptr %34, i64 0, i64 0
  %36 = call zeroext i1 %32(ptr noundef %35)
  br i1 %36, label %37, label %38

37:                                               ; preds = %31, %28
  store i1 true, ptr %4, align 1
  store i32 1, ptr %10, align 4
  br label %48

38:                                               ; preds = %31, %20
  br label %45

39:                                               ; preds = %17
  %40 = call i64 @SDL_GetTicks_REAL()
  %41 = load i64, ptr %8, align 8
  %42 = icmp uge i64 %40, %41
  br i1 %42, label %43, label %44

43:                                               ; preds = %39
  br label %46

44:                                               ; preds = %39
  call void @SDL_Delay_REAL(i32 noundef 1)
  br label %45

45:                                               ; preds = %44, %38
  br label %13, !llvm.loop !9

46:                                               ; preds = %43, %13
  %47 = call zeroext i1 (ptr, ...) @SDL_SetError_REAL(ptr noundef @.str.1)
  store i1 false, ptr %4, align 1
  store i32 1, ptr %10, align 4
  br label %48

48:                                               ; preds = %46, %37
  call void @llvm.lifetime.end.p0(i64 4, ptr %9) #6
  call void @llvm.lifetime.end.p0(i64 8, ptr %8) #6
  %49 = load i1, ptr %4, align 1
  ret i1 %49
}

; Function Attrs: nounwind uwtable
define internal zeroext i1 @WriteOutput(ptr noundef %0, ptr noundef %1, i32 noundef %2, i1 noundef zeroext %3) #0 {
  %5 = alloca i1, align 1
  %6 = alloca ptr, align 8
  %7 = alloca ptr, align 8
  %8 = alloca i32, align 4
  %9 = alloca i8, align 1
  store ptr %0, ptr %6, align 8
  store ptr %1, ptr %7, align 8
  store i32 %2, ptr %8, align 4
  %10 = zext i1 %3 to i8
  store i8 %10, ptr %9, align 1
  %11 = load i8, ptr %9, align 1, !range !5, !noundef !6
  %12 = trunc i8 %11 to i1
  br i1 %12, label %13, label %24

13:                                               ; preds = %4
  %14 = load ptr, ptr %6, align 8
  %15 = getelementptr inbounds nuw %struct.SDL_DriverWii_Context, ptr %14, i32 0, i32 0
  %16 = load ptr, ptr %15, align 8
  %17 = getelementptr inbounds nuw %struct.SDL_HIDAPI_Device, ptr %16, i32 0, i32 22
  %18 = load ptr, ptr %17, align 8
  %19 = load ptr, ptr %7, align 8
  %20 = load i32, ptr %8, align 4
  %21 = sext i32 %20 to i64
  %22 = call i32 @SDL_hid_write_REAL(ptr noundef %18, ptr noundef %19, i64 noundef %21)
  %23 = icmp sge i32 %22, 0
  store i1 %23, ptr %5, align 1
  br label %35

24:                                               ; preds = %4
  %25 = call zeroext i1 @SDL_HIDAPI_LockRumble()
  br i1 %25, label %27, label %26

26:                                               ; preds = %24
  store i1 false, ptr %5, align 1
  br label %35

27:                                               ; preds = %24
  %28 = load ptr, ptr %6, align 8
  %29 = getelementptr inbounds nuw %struct.SDL_DriverWii_Context, ptr %28, i32 0, i32 0
  %30 = load ptr, ptr %29, align 8
  %31 = load ptr, ptr %7, align 8
  %32 = load i32, ptr %8, align 4
  %33 = call i32 @SDL_HIDAPI_SendRumbleAndUnlock(ptr noundef %30, ptr noundef %31, i32 noundef %32)
  %34 = icmp sge i32 %33, 0
  store i1 %34, ptr %5, align 1
  br label %35

35:                                               ; preds = %27, %26, %13
  %36 = load i1, ptr %5, align 1
  ret i1 %36
}

; Function Attrs: nounwind uwtable
define internal zeroext i1 @WriteRegister(ptr noundef %0, i32 noundef %1, ptr noundef %2, i32 noundef %3, i1 noundef zeroext %4) #0 {
  %6 = alloca i1, align 1
  %7 = alloca ptr, align 8
  %8 = alloca i32, align 4
  %9 = alloca ptr, align 8
  %10 = alloca i32, align 4
  %11 = alloca i8, align 1
  %12 = alloca [22 x i8], align 16
  %13 = alloca i32, align 4
  store ptr %0, ptr %7, align 8
  store i32 %1, ptr %8, align 4
  store ptr %2, ptr %9, align 8
  store i32 %3, ptr %10, align 4
  %14 = zext i1 %4 to i8
  store i8 %14, ptr %11, align 1
  call void @llvm.lifetime.start.p0(i64 22, ptr %12) #6
  %15 = getelementptr inbounds [22 x i8], ptr %12, i64 0, i64 0
  call void @llvm.memset.p0.i64(ptr align 16 %15, i8 0, i64 22, i1 false)
  %16 = getelementptr inbounds [22 x i8], ptr %12, i64 0, i64 0
  store i8 22, ptr %16, align 16
  %17 = load ptr, ptr %7, align 8
  %18 = getelementptr inbounds nuw %struct.SDL_DriverWii_Context, ptr %17, i32 0, i32 7
  %19 = load i8, ptr %18, align 8, !range !5, !noundef !6
  %20 = trunc i8 %19 to i1
  %21 = zext i1 %20 to i8
  %22 = zext i8 %21 to i32
  %23 = or i32 4, %22
  %24 = trunc i32 %23 to i8
  %25 = getelementptr inbounds [22 x i8], ptr %12, i64 0, i64 1
  store i8 %24, ptr %25, align 1
  %26 = load i32, ptr %8, align 4
  %27 = lshr i32 %26, 16
  %28 = and i32 %27, 255
  %29 = trunc i32 %28 to i8
  %30 = getelementptr inbounds [22 x i8], ptr %12, i64 0, i64 2
  store i8 %29, ptr %30, align 2
  %31 = load i32, ptr %8, align 4
  %32 = lshr i32 %31, 8
  %33 = and i32 %32, 255
  %34 = trunc i32 %33 to i8
  %35 = getelementptr inbounds [22 x i8], ptr %12, i64 0, i64 3
  store i8 %34, ptr %35, align 1
  %36 = load i32, ptr %8, align 4
  %37 = and i32 %36, 255
  %38 = trunc i32 %37 to i8
  %39 = getelementptr inbounds [22 x i8], ptr %12, i64 0, i64 4
  store i8 %38, ptr %39, align 4
  %40 = load i32, ptr %10, align 4
  %41 = trunc i32 %40 to i8
  %42 = getelementptr inbounds [22 x i8], ptr %12, i64 0, i64 5
  store i8 %41, ptr %42, align 1
  br label %43

43:                                               ; preds = %5
  br label %44

44:                                               ; preds = %43
  br label %45

45:                                               ; preds = %44
  %46 = getelementptr inbounds [22 x i8], ptr %12, i64 0, i64 0
  %47 = getelementptr inbounds i8, ptr %46, i64 6
  %48 = load ptr, ptr %9, align 8
  %49 = load i32, ptr %10, align 4
  %50 = sext i32 %49 to i64
  call void @llvm.memcpy.p0.p0.i64(ptr align 1 %47, ptr align 1 %48, i64 %50, i1 false)
  %51 = load ptr, ptr %7, align 8
  %52 = getelementptr inbounds [22 x i8], ptr %12, i64 0, i64 0
  %53 = load i8, ptr %11, align 1, !range !5, !noundef !6
  %54 = trunc i8 %53 to i1
  %55 = call zeroext i1 @WriteOutput(ptr noundef %51, ptr noundef %52, i32 noundef 22, i1 noundef zeroext %54)
  br i1 %55, label %57, label %56

56:                                               ; preds = %45
  store i1 false, ptr %6, align 1
  store i32 1, ptr %13, align 4
  br label %79

57:                                               ; preds = %45
  %58 = load i8, ptr %11, align 1, !range !5, !noundef !6
  %59 = trunc i8 %58 to i1
  br i1 %59, label %60, label %78

60:                                               ; preds = %57
  %61 = load ptr, ptr %7, align 8
  %62 = call zeroext i1 @ReadInputSync(ptr noundef %61, i32 noundef 34, ptr noundef @IsWriteMemoryResponse)
  br i1 %62, label %64, label %63

63:                                               ; preds = %60
  store i1 false, ptr %6, align 1
  store i32 1, ptr %13, align 4
  br label %79

64:                                               ; preds = %60
  %65 = load ptr, ptr %7, align 8
  %66 = getelementptr inbounds nuw %struct.SDL_DriverWii_Context, ptr %65, i32 0, i32 11
  %67 = getelementptr inbounds [22 x i8], ptr %66, i64 0, i64 4
  %68 = load i8, ptr %67, align 4
  %69 = icmp ne i8 %68, 0
  br i1 %69, label %70, label %77

70:                                               ; preds = %64
  %71 = load ptr, ptr %7, align 8
  %72 = getelementptr inbounds nuw %struct.SDL_DriverWii_Context, ptr %71, i32 0, i32 11
  %73 = getelementptr inbounds [22 x i8], ptr %72, i64 0, i64 4
  %74 = load i8, ptr %73, align 4
  %75 = zext i8 %74 to i32
  %76 = call zeroext i1 (ptr, ...) @SDL_SetError_REAL(ptr noundef @.str.6, i32 noundef %75)
  store i1 false, ptr %6, align 1
  store i32 1, ptr %13, align 4
  br label %79

77:                                               ; preds = %64
  br label %78

78:                                               ; preds = %77, %57
  store i1 true, ptr %6, align 1
  store i32 1, ptr %13, align 4
  br label %79

79:                                               ; preds = %78, %70, %63, %56
  call void @llvm.lifetime.end.p0(i64 22, ptr %12) #6
  %80 = load i1, ptr %6, align 1
  ret i1 %80
}