; Function Attrs: nounwind uwtable
define internal fastcc void @WriteRegister(ptr noundef %0, i32 noundef range(i32 10748144, 10748156) %1, i8 %.0.val) unnamed_addr #0 {
  %3 = alloca [22 x i8], align 16
  call void @llvm.lifetime.start.p0(i64 22, ptr nonnull %3) #7
  call void @llvm.memset.p0.i64(ptr noundef nonnull align 16 dereferenceable(22) %3, i8 0, i64 22, i1 false)
  store i8 22, ptr %3, align 16
  %4 = getelementptr inbounds nuw i8, ptr %0, i64 40
  %5 = load i8, ptr %4, align 8, !range !5, !noundef !6
  %6 = or disjoint i8 %5, 4
  %7 = getelementptr inbounds nuw i8, ptr %3, i64 1
  store i8 %6, ptr %7, align 1
  %8 = getelementptr inbounds nuw i8, ptr %3, i64 2
  store i8 -92, ptr %8, align 2
  %9 = trunc i32 %1 to i8
  %10 = getelementptr inbounds nuw i8, ptr %3, i64 4
  store i8 %9, ptr %10, align 4
  %11 = getelementptr inbounds nuw i8, ptr %3, i64 5
  store i8 1, ptr %11, align 1
  %12 = getelementptr inbounds nuw i8, ptr %3, i64 6
  store i8 %.0.val, ptr %12, align 2
  %13 = load ptr, ptr %0, align 8
  %14 = getelementptr inbounds nuw i8, ptr %13, i64 128
  %15 = load ptr, ptr %14, align 8
  %16 = call i32 @SDL_hid_write_REAL(ptr noundef %15, ptr noundef nonnull %3, i64 noundef 22) #7
  %17 = icmp sgt i32 %16, -1
  br i1 %17, label %18, label %48

18:                                               ; preds = %2
  %19 = call i64 @SDL_GetTicks_REAL() #7
  %20 = add i64 %19, 250
  %21 = getelementptr inbounds nuw i8, ptr %0, i64 44
  %22 = getelementptr inbounds nuw i8, ptr %0, i64 47
  br label %.split.i

.split.i:                                         ; preds = %.split.i.backedge, %18
  %23 = load ptr, ptr %0, align 8
  %24 = getelementptr inbounds nuw i8, ptr %23, i64 136
  %25 = call i32 @SDL_GetAtomicInt_REAL(ptr noundef nonnull %24) #7
  %26 = icmp sgt i32 %25, 0
  br i1 %26, label %.thread.i, label %ReadInput.exit.i

ReadInput.exit.i:                                 ; preds = %.split.i
  %27 = load ptr, ptr %0, align 8
  %28 = getelementptr inbounds nuw i8, ptr %27, i64 128
  %29 = load ptr, ptr %28, align 8
  %30 = call i32 @SDL_hid_read_timeout_REAL(ptr noundef %29, ptr noundef nonnull %21, i64 noundef 22, i32 noundef 0) #7
  %.not.i = icmp eq i32 %30, -1
  br i1 %.not.i, label %ReadInputSync.exit, label %31

31:                                               ; preds = %ReadInput.exit.i
  %32 = icmp sgt i32 %30, 0
  br i1 %32, label %33, label %.thread.i

33:                                               ; preds = %31
  %34 = load i8, ptr %21, align 4
  %35 = icmp eq i8 %34, 34
  br i1 %35, label %36, label %.split.i.backedge

36:                                               ; preds = %33
  %37 = load i8, ptr %22, align 1
  %38 = icmp eq i8 %37, 22
  br i1 %38, label %42, label %.split.i.backedge

.thread.i:                                        ; preds = %31, %.split.i
  %39 = call i64 @SDL_GetTicks_REAL() #7
  %.not10.i = icmp ult i64 %39, %20
  br i1 %.not10.i, label %40, label %ReadInputSync.exit

40:                                               ; preds = %.thread.i
  call void @SDL_Delay_REAL(i32 noundef 1) #7
  br label %.split.i.backedge

.split.i.backedge:                                ; preds = %40, %36, %33
  br label %.split.i, !llvm.loop !11

ReadInputSync.exit:                               ; preds = %ReadInput.exit.i, %.thread.i
  %41 = call zeroext i1 (ptr, ...) @SDL_SetError_REAL(ptr noundef nonnull @.str.1) #7
  br label %48

42:                                               ; preds = %36
  %43 = getelementptr inbounds nuw i8, ptr %0, i64 48
  %44 = load i8, ptr %43, align 4
  %.not = icmp eq i8 %44, 0
  br i1 %.not, label %48, label %45

45:                                               ; preds = %42
  %46 = zext i8 %44 to i32
  %47 = call zeroext i1 (ptr, ...) @SDL_SetError_REAL(ptr noundef nonnull @.str.6, i32 noundef %46) #7
  br label %48

48:                                               ; preds = %ReadInputSync.exit, %42, %2, %45
  call void @llvm.lifetime.end.p0(i64 22, ptr nonnull %3) #7
  ret void
}